target datalayout = "e-m:e-p270:32:32-p271:32:32-p272:64:64-i64:64-i128:128-f80:128-n8:16:32:64-S128"
target triple = "x86_64-pc-linux-gnu"

%struct.ossl_cmp_ctx_st = type { ptr, ptr, ptr, i32, ptr, ptr, ptr, ptr, ptr, i32, ptr, ptr, i32, i32, i32, i32, i64, ptr, ptr, i32, i32, ptr, ptr, ptr, ptr, ptr, i32, i32, i32, ptr, ptr, ptr, ptr, ptr, i64, ptr, i32, i32, ptr, ptr, ptr, ptr, ptr, ptr, ptr, ptr, i32, i32, ptr, ptr, i32, ptr, ptr, i32, ptr, ptr, i32, i32, ptr, ptr, i32, i32, ptr, ptr, i32, ptr, i32, ptr, i32, ptr, ptr, ptr, ptr, ptr, ptr }

@.str.32 = private unnamed_addr constant [12 x i8] c"AES-256-CBC\00", align 1

; Function Attrs: inlinehint nounwind uwtable
define internal ptr @ossl_check_X509_freefunc_type(ptr noundef %0) #4 {
  %2 = alloca ptr, align 8
  store ptr %0, ptr %2, align 8, !tbaa !76
  %3 = load ptr, ptr %2, align 8, !tbaa !76
  ret ptr %3
}

; Function Attrs: inlinehint nounwind uwtable
define internal ptr @ossl_check_X509_sk_type(ptr noundef %0) #4 {
  %2 = alloca ptr, align 8
  store ptr %0, ptr %2, align 8, !tbaa !84
  %3 = load ptr, ptr %2, align 8, !tbaa !84
  ret ptr %3
}

; Function Attrs: inlinehint nounwind uwtable
define internal ptr @ossl_check_X509_compfunc_type(ptr noundef %0) #4 {
  %2 = alloca ptr, align 8
  store ptr %0, ptr %2, align 8, !tbaa !76
  %3 = load ptr, ptr %2, align 8, !tbaa !76
  ret ptr %3
}

; Function Attrs: nounwind uwtable
define internal ptr @enc_privkey(ptr noundef %0, ptr noundef %1) #0 {
  %3 = alloca ptr, align 8
  %4 = alloca ptr, align 8
  %5 = alloca ptr, align 8
  %6 = alloca ptr, align 8
  %7 = alloca ptr, align 8
  %8 = alloca ptr, align 8
  %9 = alloca ptr, align 8
  %10 = alloca ptr, align 8
  store ptr %0, ptr %3, align 8, !tbaa !34
  store ptr %1, ptr %4, align 8, !tbaa !57
  call void @llvm.lifetime.start.p0(i64 8, ptr %5) #6
  store ptr null, ptr %5, align 8, !tbaa !106
  call void @llvm.lifetime.start.p0(i64 8, ptr %6) #6
  store ptr null, ptr %6, align 8, !tbaa !107
  call void @llvm.lifetime.start.p0(i64 8, ptr %7) #6
  store ptr null, ptr %7, align 8, !tbaa !109
  call void @llvm.lifetime.start.p0(i64 8, ptr %8) #6
  store ptr null, ptr %8, align 8, !tbaa !111
  call void @llvm.lifetime.start.p0(i64 8, ptr %9) #6
  %11 = load ptr, ptr %3, align 8, !tbaa !34
  %12 = getelementptr inbounds nuw %struct.ossl_cmp_ctx_st, ptr %11, i32 0, i32 22
  %13 = load ptr, ptr %12, align 8, !tbaa !113
  store ptr %13, ptr %9, align 8, !tbaa !56
  call void @llvm.lifetime.start.p0(i64 8, ptr %10) #6
  %14 = call ptr @ossl_check_X509_compfunc_type(ptr noundef null)
  %15 = call ptr @OPENSSL_sk_new_reserve(ptr noundef %14, i32 noundef 1)
  store ptr %15, ptr %10, align 8, !tbaa !84
  %16 = load ptr, ptr %10, align 8, !tbaa !84
  %17 = icmp eq ptr %16, null
  br i1 %17, label %23, label %18

18:                                               ; preds = %2
  %19 = load ptr, ptr %10, align 8, !tbaa !84
  %20 = load ptr, ptr %9, align 8, !tbaa !56
  %21 = call i32 @X509_add_cert(ptr noundef %19, ptr noundef %20, i32 noundef 1)
  %22 = icmp ne i32 %21, 0
  br i1 %22, label %24, label %23

23:                                               ; preds = %18, %2
  br label %70

24:                                               ; preds = %18
  %25 = call ptr @BIO_s_mem()
  %26 = call ptr @BIO_new(ptr noundef %25)
  store ptr %26, ptr %7, align 8, !tbaa !109
  %27 = load ptr, ptr %7, align 8, !tbaa !109
  %28 = icmp eq ptr %27, null
  br i1 %28, label %34, label %29

29:                                               ; preds = %24
  %30 = load ptr, ptr %7, align 8, !tbaa !109
  %31 = load ptr, ptr %4, align 8, !tbaa !57
  %32 = call i32 @i2d_PrivateKey_bio(ptr noundef %30, ptr noundef %31)
  %33 = icmp sle i32 %32, 0
  br i1 %33, label %34, label %35

34:                                               ; preds = %29, %24
  br label %70

35:                                               ; preds = %29
  %36 = load ptr, ptr %3, align 8, !tbaa !34
  call void @ossl_cmp_set_own_chain(ptr noundef %36)
  %37 = load ptr, ptr %3, align 8, !tbaa !34
  %38 = getelementptr inbounds nuw %struct.ossl_cmp_ctx_st, ptr %37, i32 0, i32 0
  %39 = load ptr, ptr %38, align 8, !tbaa !36
  %40 = load ptr, ptr %3, align 8, !tbaa !34
  %41 = getelementptr inbounds nuw %struct.ossl_cmp_ctx_st, ptr %40, i32 0, i32 1
  %42 = load ptr, ptr %41, align 8, !tbaa !51
  %43 = call ptr @EVP_CIPHER_fetch(ptr noundef %39, ptr noundef @.str.32, ptr noundef %42)
  store ptr %43, ptr %8, align 8, !tbaa !111
  %44 = load ptr, ptr %7, align 8, !tbaa !109
  %45 = load ptr, ptr %3, align 8, !tbaa !34
  %46 = getelementptr inbounds nuw %struct.ossl_cmp_ctx_st, ptr %45, i32 0, i32 29
  %47 = load ptr, ptr %46, align 8, !tbaa !55
  %48 = load ptr, ptr %3, align 8, !tbaa !34
  %49 = getelementptr inbounds nuw %struct.ossl_cmp_ctx_st, ptr %48, i32 0, i32 30
  %50 = load ptr, ptr %49, align 8, !tbaa !114
  %51 = load ptr, ptr %3, align 8, !tbaa !34
  %52 = getelementptr inbounds nuw %struct.ossl_cmp_ctx_st, ptr %51, i32 0, i32 31
  %53 = load ptr, ptr %52, align 8, !tbaa !115
  %54 = load ptr, ptr %10, align 8, !tbaa !84
  %55 = load ptr, ptr %8, align 8, !tbaa !111
  %56 = load ptr, ptr %3, align 8, !tbaa !34
  %57 = getelementptr inbounds nuw %struct.ossl_cmp_ctx_st, ptr %56, i32 0, i32 0
  %58 = load ptr, ptr %57, align 8, !tbaa !36
  %59 = load ptr, ptr %3, align 8, !tbaa !34
  %60 = getelementptr inbounds nuw %struct.ossl_cmp_ctx_st, ptr %59, i32 0, i32 1
  %61 = load ptr, ptr %60, align 8, !tbaa !51
  %62 = call ptr @ossl_cms_sign_encrypt(ptr noundef %44, ptr noundef %47, ptr noundef %50, ptr noundef %53, i32 noundef 128, ptr noundef %54, ptr noundef %55, i32 noundef 128, ptr noundef %58, ptr noundef %61)
  store ptr %62, ptr %6, align 8, !tbaa !107
  %63 = load ptr, ptr %8, align 8, !tbaa !111
  call void @EVP_CIPHER_free(ptr noundef %63)
  %64 = load ptr, ptr %6, align 8, !tbaa !107
  %65 = icmp eq ptr %64, null
  br i1 %65, label %66, label %67

66:                                               ; preds = %35
  br label %70

67:                                               ; preds = %35
  %68 = load ptr, ptr %6, align 8, !tbaa !107
  %69 = call ptr @OSSL_CRMF_ENCRYPTEDKEY_init_envdata(ptr noundef %68)
  store ptr %69, ptr %5, align 8, !tbaa !106
  br label %70

70:                                               ; preds = %67, %66, %34, %23
  %71 = load ptr, ptr %10, align 8, !tbaa !84
  %72 = call ptr @ossl_check_X509_sk_type(ptr noundef %71)
  %73 = call ptr @ossl_check_X509_freefunc_type(ptr noundef @X509_free)
  call void @OPENSSL_sk_pop_free(ptr noundef %72, ptr noundef %73)
  %74 = load ptr, ptr %7, align 8, !tbaa !109
  %75 = call i32 @BIO_free(ptr noundef %74)
  %76 = load ptr, ptr %5, align 8, !tbaa !106
  %77 = icmp eq ptr %76, null
  br i1 %77, label %78, label %81

78:                                               ; preds = %70
  %79 = load ptr, ptr %6, align 8, !tbaa !107
  %80 = call ptr @CMS_EnvelopedData_it()
  call void @ASN1_item_free(ptr noundef %79, ptr noundef %80)
  br label %81

81:                                               ; preds = %78, %70
  %82 = load ptr, ptr %5, align 8, !tbaa !106
  call void @llvm.lifetime.end.p0(i64 8, ptr %10) #6
  call void @llvm.lifetime.end.p0(i64 8, ptr %9) #6
  call void @llvm.lifetime.end.p0(i64 8, ptr %8) #6
  call void @llvm.lifetime.end.p0(i64 8, ptr %7) #6
  call void @llvm.lifetime.end.p0(i64 8, ptr %6) #6
  call void @llvm.lifetime.end.p0(i64 8, ptr %5) #6
  ret ptr %82
}