; Function Attrs: nounwind uwtable
define internal fastcc ptr @enc_privkey(ptr noundef nonnull %0, ptr noundef nonnull %1) unnamed_addr #0 {
  %3 = getelementptr inbounds nuw i8, ptr %0, i64 152
  %4 = load ptr, ptr %3, align 8, !tbaa !75
  %5 = tail call ptr @OPENSSL_sk_new_reserve(ptr noundef null, i32 noundef 1) #7
  %6 = icmp eq ptr %5, null
  br i1 %6, label %33, label %7

7:                                                ; preds = %2
  %8 = tail call i32 @X509_add_cert(ptr noundef nonnull %5, ptr noundef %4, i32 noundef 1) #7
  %.not = icmp eq i32 %8, 0
  br i1 %.not, label %33, label %9

9:                                                ; preds = %7
  %10 = tail call ptr @BIO_s_mem() #7
  %11 = tail call ptr @BIO_new(ptr noundef %10) #7
  %12 = icmp eq ptr %11, null
  br i1 %12, label %33, label %13

13:                                               ; preds = %9
  %14 = tail call i32 @i2d_PrivateKey_bio(ptr noundef nonnull %11, ptr noundef nonnull %1) #7
  %15 = icmp slt i32 %14, 1
  br i1 %15, label %33, label %16

16:                                               ; preds = %13
  tail call void @ossl_cmp_set_own_chain(ptr noundef nonnull %0) #7
  %17 = load ptr, ptr %0, align 8, !tbaa !23
  %18 = getelementptr inbounds nuw i8, ptr %0, i64 8
  %19 = load ptr, ptr %18, align 8, !tbaa !38
  %20 = tail call ptr @EVP_CIPHER_fetch(ptr noundef %17, ptr noundef nonnull @.str.32, ptr noundef %19) #7
  %21 = getelementptr inbounds nuw i8, ptr %0, i64 200
  %22 = load ptr, ptr %21, align 8, !tbaa !42
  %23 = getelementptr inbounds nuw i8, ptr %0, i64 208
  %24 = load ptr, ptr %23, align 8, !tbaa !76
  %25 = getelementptr inbounds nuw i8, ptr %0, i64 216
  %26 = load ptr, ptr %25, align 8, !tbaa !77
  %27 = load ptr, ptr %0, align 8, !tbaa !23
  %28 = load ptr, ptr %18, align 8, !tbaa !38
  %29 = tail call ptr @ossl_cms_sign_encrypt(ptr noundef nonnull %11, ptr noundef %22, ptr noundef %24, ptr noundef %26, i32 noundef 128, ptr noundef nonnull %5, ptr noundef %20, i32 noundef 128, ptr noundef %27, ptr noundef %28) #7
  tail call void @EVP_CIPHER_free(ptr noundef %20) #7
  %30 = icmp eq ptr %29, null
  br i1 %30, label %33, label %31

31:                                               ; preds = %16
  %32 = tail call ptr @OSSL_CRMF_ENCRYPTEDKEY_init_envdata(ptr noundef nonnull %29) #7
  br label %33

33:                                               ; preds = %16, %9, %13, %2, %7, %31
  %.027 = phi ptr [ null, %2 ], [ null, %9 ], [ %11, %13 ], [ %11, %16 ], [ %11, %31 ], [ null, %7 ]
  %.026 = phi ptr [ null, %2 ], [ null, %9 ], [ null, %13 ], [ null, %16 ], [ %29, %31 ], [ null, %7 ]
  %.0 = phi ptr [ null, %2 ], [ null, %9 ], [ null, %13 ], [ null, %16 ], [ %32, %31 ], [ null, %7 ]
  tail call void @OPENSSL_sk_pop_free(ptr noundef %5, ptr noundef nonnull @X509_free) #7
  %34 = tail call i32 @BIO_free(ptr noundef %.027) #7
  %35 = icmp eq ptr %.0, null
  br i1 %35, label %36, label %38

36:                                               ; preds = %33
  %37 = tail call ptr @CMS_EnvelopedData_it() #7
  tail call void @ASN1_item_free(ptr noundef %.026, ptr noundef %37) #7
  br label %38

38:                                               ; preds = %36, %33
  ret ptr %.0
}